Certificate:
    Data:
        Version: 3 (0x2)
        Serial Number:
            56:61:55:82:ce:57:b2:c2:cc:bb:48:70:1f:47:4f:21
        Signature Algorithm: sha256WithRSAEncryption
        Issuer: C = JP, CN = Test expired cross-sign TE
        Validity
            Not Before: Jan  1 00:00:00 1900 GMT
            Not After : Dec 31 23:59:59 9999 GMT
        Subject: C = JP, CN = Test expired cross-sign TE
        Subject Public Key Info:
            Public Key Algorithm: rsaEncryption
                RSA Public-Key: (2048 bit)
                Modulus:
                    00:9f:a0:d5:f5:84:e0:07:eb:fe:2d:80:2b:38:bf:
                    84:1b:89:91:8b:ce:31:e3:54:30:71:72:e9:06:32:
                    68:99:c0:49:1a:c2:04:0d:1a:49:1e:b1:a6:3d:9e:
                    65:ce:b8:ab:e1:6e:5b:a7:89:ab:c0:07:10:81:3d:
                    bc:a4:22:13:3f:30:b8:3f:4b:5a:05:46:96:8e:f9:
                    c5:b9:9c:1e:08:88:69:a8:c1:0c:9e:56:17:33:e3:
                    2f:37:64:a7:be:d6:07:25:01:38:00:a3:42:38:c2:
                    a8:60:34:ce:a1:0f:84:01:7c:16:a0:bc:e6:57:4e:
                    bf:8b:f4:ab:e7:21:bc:b4:ce:d0:91:d5:26:d8:64:
                    8f:6e:6e:d7:99:58:36:f9:43:13:e0:71:c5:b0:e1:
                    ff:1f:70:4d:f9:11:6e:1b:19:fa:fd:e1:da:f6:39:
                    60:ee:c7:97:9f:a9:67:95:e4:e4:77:46:a1:3f:0d:
                    b7:c1:32:ea:50:5a:32:ce:b9:2a:1e:f1:34:0b:94:
                    26:c8:db:b7:59:09:e6:03:c7:4a:ed:65:87:85:b3:
                    26:10:7f:c9:e5:54:74:bb:00:37:cf:22:43:c6:6b:
                    b1:2b:1e:29:3d:e4:59:20:c9:8e:04:14:0c:e9:20:
                    1b:ca:37:a9:2f:e2:14:c6:8f:c3:ca:47:9e:d7:d2:
                    bc:13
                Exponent: 65537 (0x10001)
        X509v3 extensions:
            X509v3 Basic Constraints: critical
                CA:TRUE
    Signature Algorithm: sha256WithRSAEncryption
         15:33:da:13:bb:3f:fb:ce:65:5f:66:db:f0:d2:bf:bf:ef:ae:
         8c:2f:45:fa:08:23:13:07:b8:9a:21:df:9c:fe:cb:b7:40:bb:
         a4:a8:52:d6:87:ce:69:7c:19:e5:01:9f:0c:ac:dc:79:d8:08:
         4f:54:42:f0:38:62:c6:49:c5:e4:fd:a6:4e:8b:07:60:ff:27:
         0e:13:2d:c7:0d:66:55:c6:6b:45:68:71:cf:f3:b7:41:ea:73:
         46:bd:e5:64:d3:9b:97:38:ba:02:17:72:57:e4:d1:6f:b3:a5:
         d7:ff:0c:11:f1:01:91:be:ea:19:41:ec:92:01:1a:3d:85:8c:
         b0:85:4b:c7:91:f9:24:27:4e:70:7f:87:89:b1:3d:71:23:b4:
         80:89:94:34:9d:56:55:24:5d:f8:6a:2c:3f:8e:c0:c1:ca:6a:
         d6:de:98:de:38:d7:71:fa:e9:79:fb:4d:fa:11:84:e7:a5:f9:
         32:bd:4c:76:cd:65:af:15:61:c8:80:bb:94:d2:4b:1e:91:52:
         04:e9:9f:70:24:8e:d7:d1:01:bb:83:95:33:71:15:7d:fe:78:
         e7:45:8a:19:e9:16:a7:81:02:ba:20:d1:a9:eb:c5:fd:71:52:
         b0:68:93:b2:36:e4:e4:6a:68:ed:c1:72:5a:8a:65:de:f2:2e:
         8c:b9:d0:31
-----BEGIN CERTIFICATE-----
MIIDBTCCAe2gAwIBAgIQVmFVgs5XssLMu0hwH0dPITANBgkqhkiG9w0BAQsFADAy
MQswCQYDVQQGEwJKUDEjMCEGA1UEAxMaVGVzdCBleHBpcmVkIGNyb3NzLXNpZ24g
VEUwIhgPMTkwMDAxMDEwMDAwMDBaGA85OTk5MTIzMTIzNTk1OVowMjELMAkGA1UE
BhMCSlAxIzAhBgNVBAMTGlRlc3QgZXhwaXJlZCBjcm9zcy1zaWduIFRFMIIBIjAN
BgkqhkiG9w0BAQEFAAOCAQ8AMIIBCgKCAQEAn6DV9YTgB+v+LYArOL+EG4mRi84x
41QwcXLpBjJomcBJGsIEDRpJHrGmPZ5lzrir4W5bp4mrwAcQgT28pCITPzC4P0ta
BUaWjvnFuZweCIhpqMEMnlYXM+MvN2SnvtYHJQE4AKNCOMKoYDTOoQ+EAXwWoLzm
V06/i/Sr5yG8tM7QkdUm2GSPbm7XmVg2+UMT4HHFsOH/H3BN+RFuGxn6/eHa9jlg
7seXn6lnleTkd0ahPw23wTLqUFoyzrkqHvE0C5QmyNu3WQnmA8dK7WWHhbMmEH/J
5VR0uwA3zyJDxmuxKx4pPeRZIMmOBBQM6SAbyjepL+IUxo/Dykee19K8EwIDAQAB
oxMwETAPBgNVHRMBAf8EBTADAQH/MA0GCSqGSIb3DQEBCwUAA4IBAQAVM9oTuz/7
zmVfZtvw0r+/766ML0X6CCMTB7iaId+c/su3QLukqFLWh85pfBnlAZ8MrNx52AhP
VELwOGLGScXk/aZOiwdg/ycOEy3HDWZVxmtFaHHP87dB6nNGveVk05uXOLoCF3JX
5NFvs6XX/wwR8QGRvuoZQeySARo9hYywhUvHkfkkJ05wf4eJsT1xI7SAiZQ0nVZV
JF34aiw/jsDBymrW3pjeONdx+ul5+036EYTnpfkyvUx2zWWvFWHIgLuU0ksekVIE
6Z9wJI7X0QG7g5UzcRV9/njnRYoZ6RangQK6INGp68X9cVKwaJOyNuTkamjtwXJa
imXe8i6MudAx
-----END CERTIFICATE-----
