Certificate:
    Data:
        Version: 3 (0x2)
        Serial Number:
            3b:81:0c:3f:fc:b6:28:4c:d4:80:c7:b3:c3:34:65:f3
        Signature Algorithm: sha256WithRSAEncryption
        Issuer: C = JP, CN = Test expired cross-sign TE
        Validity
            Not Before: Jan  1 00:00:00 1 GMT
            Not After : Dec 31 23:59:59 9999 GMT
        Subject: C = JP, CN = Test expired cross-sign TE
        Subject Public Key Info:
            Public Key Algorithm: rsaEncryption
                RSA Public-Key: (2048 bit)
                Modulus:
                    00:a6:35:23:ba:eb:54:36:74:3f:22:d0:a3:0e:a1:
                    13:b8:a9:98:65:fc:7e:0b:6c:4a:76:06:5c:d5:4c:
                    90:a8:19:42:b1:0c:f8:d2:30:90:c7:a7:1e:af:0b:
                    5d:8b:e2:6d:f1:17:35:9b:ae:56:b8:5f:87:bb:19:
                    1c:4d:87:fb:74:0a:fb:62:2d:5d:6a:9c:50:c7:df:
                    bc:bd:d2:22:a0:12:b0:9e:a9:f6:c7:c5:26:ee:e8:
                    68:78:77:7d:36:89:8e:9a:7b:ea:f1:aa:df:ef:a4:
                    0e:fc:bd:3f:02:79:e5:63:6c:5d:0e:e2:c3:53:9d:
                    36:b5:7e:e9:fd:ec:f9:ec:13:4d:d2:8a:0d:68:d7:
                    18:06:81:3d:89:91:40:93:fa:07:58:8c:b5:db:7c:
                    e5:00:68:44:b3:d4:ec:1f:04:7e:85:c2:71:41:8c:
                    ff:cd:b1:8c:79:88:cc:b9:74:c3:cb:66:ed:5d:61:
                    03:82:28:bd:9f:ba:af:b9:b4:28:37:f7:b7:42:20:
                    7e:b7:a1:d6:21:62:8b:ba:53:9e:78:53:43:ad:9a:
                    85:a7:75:69:c2:63:c4:9c:00:48:f0:3e:0e:0e:a8:
                    7f:82:c2:66:aa:ff:1e:1c:4c:99:72:82:d5:6c:b7:
                    0e:2e:dd:69:97:e1:5e:09:5c:88:91:9c:d0:94:83:
                    fc:c7
                Exponent: 65537 (0x10001)
        X509v3 extensions:
            X509v3 Basic Constraints: critical
                CA:TRUE
    Signature Algorithm: sha256WithRSAEncryption
         59:b9:79:6a:8a:8e:5d:1e:9f:db:5b:6c:1a:49:80:84:0a:90:
         99:35:c0:be:60:cc:56:81:fc:44:a9:3c:d9:be:a7:67:82:aa:
         77:23:cc:ed:9a:7c:bb:40:84:80:a6:85:37:b6:ee:37:df:2d:
         40:a3:2e:f6:e1:89:e4:3a:cd:8c:d0:e3:91:35:e1:0e:89:cf:
         54:5c:2c:5d:39:a7:db:1c:56:08:44:df:4a:27:a5:22:13:e9:
         9c:ee:68:dc:4d:7d:99:cf:90:69:8a:bc:10:09:ce:08:db:24:
         85:4d:b5:d5:8f:34:eb:8a:d9:90:d5:6c:80:86:1f:a7:5f:75:
         3f:4a:6e:ee:f8:f0:bb:29:a3:40:a0:40:f8:f0:03:99:8a:4a:
         1c:2a:c1:67:37:d1:ba:7a:bb:89:c5:ce:06:dc:50:f7:08:21:
         43:18:91:72:db:ae:cf:6a:5d:29:69:7c:77:74:38:6f:23:a7:
         08:f8:7b:36:bf:3b:1f:e4:8d:36:4a:92:bb:f4:4f:9b:66:37:
         77:ae:17:76:cd:92:87:db:3b:6d:1c:4c:1c:40:ff:3e:2e:af:
         6e:ec:57:3f:a7:21:b1:db:d8:42:63:a3:56:e8:93:0e:73:68:
         5d:03:e8:fa:80:4f:b9:14:a5:e4:5a:62:e4:ca:03:0f:b1:96:
         6e:5a:9b:74
-----BEGIN CERTIFICATE-----
MIIDBTCCAe2gAwIBAgIQO4EMP/y2KEzUgMezwzRl8zANBgkqhkiG9w0BAQsFADAy
MQswCQYDVQQGEwJKUDEjMCEGA1UEAxMaVGVzdCBleHBpcmVkIGNyb3NzLXNpZ24g
VEUwIhgPMDAwMTAxMDEwMDAwMDBaGA85OTk5MTIzMTIzNTk1OVowMjELMAkGA1UE
BhMCSlAxIzAhBgNVBAMTGlRlc3QgZXhwaXJlZCBjcm9zcy1zaWduIFRFMIIBIjAN
BgkqhkiG9w0BAQEFAAOCAQ8AMIIBCgKCAQEApjUjuutUNnQ/ItCjDqETuKmYZfx+
C2xKdgZc1UyQqBlCsQz40jCQx6cerwtdi+Jt8Rc1m65WuF+HuxkcTYf7dAr7Yi1d
apxQx9+8vdIioBKwnqn2x8Um7uhoeHd9NomOmnvq8arf76QO/L0/AnnlY2xdDuLD
U502tX7p/ez57BNN0ooNaNcYBoE9iZFAk/oHWIy123zlAGhEs9TsHwR+hcJxQYz/
zbGMeYjMuXTDy2btXWEDgii9n7qvubQoN/e3QiB+t6HWIWKLulOeeFNDrZqFp3Vp
wmPEnABI8D4ODqh/gsJmqv8eHEyZcoLVbLcOLt1pl+FeCVyIkZzQlIP8xwIDAQAB
oxMwETAPBgNVHRMBAf8EBTADAQH/MA0GCSqGSIb3DQEBCwUAA4IBAQBZuXlqio5d
Hp/bW2waSYCECpCZNcC+YMxWgfxEqTzZvqdngqp3I8ztmny7QISApoU3tu433y1A
oy724YnkOs2M0OORNeEOic9UXCxdOafbHFYIRN9KJ6UiE+mc7mjcTX2Zz5BpirwQ
Cc4I2ySFTbXVjzTritmQ1WyAhh+nX3U/Sm7u+PC7KaNAoED48AOZikocKsFnN9G6
eruJxc4G3FD3CCFDGJFy267Pal0paXx3dDhvI6cI+Hs2vzsf5I02SpK79E+bZjd3
rhd2zZKH2zttHEwcQP8+Lq9u7Fc/pyGx29hCY6NW6JMOc2hdA+j6gE+5FKXkWmLk
ygMPsZZuWpt0
-----END CERTIFICATE-----
